; Function Attrs: mustprogress nofree norecurse nosync nounwind willreturn memory(read, inaccessiblemem: none) uwtable
define dso_local noundef i32 @_ZNK4llvm12MachineInstr13getBundleSizeEv(ptr nocapture noundef nonnull readonly align 8 dereferenceable(70) %0) local_unnamed_addr #3 align 2 {
  %2 = getelementptr inbounds nuw i8, ptr %0, i64 44
  %3 = load i32, ptr %2, align 4
  %4 = and i32 %3, 8
  %.not3 = icmp eq i32 %4, 0
  br i1 %.not3, label %._crit_edge, label %.lr.ph

.lr.ph:                                           ; preds = %1, %.lr.ph
  %.05 = phi i32 [ %5, %.lr.ph ], [ 0, %1 ]
  %.sroa.0.04 = phi ptr [ %7, %.lr.ph ], [ %0, %1 ]
  %5 = add i32 %.05, 1
  %6 = getelementptr inbounds nuw i8, ptr %.sroa.0.04, i64 8
  %7 = load ptr, ptr %6, align 8
  %8 = getelementptr inbounds nuw i8, ptr %7, i64 44
  %9 = load i32, ptr %8, align 4
  %10 = and i32 %9, 8
  %.not = icmp eq i32 %10, 0
  br i1 %.not, label %._crit_edge, label %.lr.ph, !llvm.loop !33

._crit_edge:                                      ; preds = %.lr.ph, %1
  %.0.lcssa = phi i32 [ 0, %1 ], [ %5, %.lr.ph ]
  ret i32 %.0.lcssa
}